target datalayout = "e-m:e-p270:32:32-p271:32:32-p272:64:64-i64:64-i128:128-f80:128-n8:16:32:64-S128"
target triple = "x86_64-pc-linux-gnu"

%"class.std::basic_ostream" = type { ptr, %"class.std::basic_ios" }
%"class.std::basic_ios" = type { %"class.std::ios_base", ptr, i8, i8, ptr, ptr, ptr, ptr }
%"class.std::ios_base" = type { ptr, i64, i64, i32, i32, i32, ptr, %"struct.std::ios_base::_Words", [8 x %"struct.std::ios_base::_Words"], i32, ptr, %"class.std::locale" }
%"struct.std::ios_base::_Words" = type { ptr, i64 }
%"class.std::locale" = type { ptr }

@_ZSt4cerr = external global %"class.std::basic_ostream", align 8
@_ZSt4cout = external global %"class.std::basic_ostream", align 8
@_ZL9utf8_name = internal global ptr @.str.62, align 8
@_ZL9wide_name = internal global ptr null, align 8
@.str.29 = private unnamed_addr constant [13 x i8] c"Conversions \00", align 1
@.str.30 = private unnamed_addr constant [6 x i8] c"Wlen=\00", align 1
@.str.31 = private unnamed_addr constant [7 x i8] c" Nlen=\00", align 1

; Function Attrs: inlinehint mustprogress nounwind uwtable
define linkonce_odr dso_local noundef i32 @_ZStorSt12_Ios_IostateS_(i32 noundef %0, i32 noundef %1) #11 comdat {
  %3 = alloca i32, align 4
  %4 = alloca i32, align 4
  store i32 %0, ptr %3, align 4, !tbaa !101
  store i32 %1, ptr %4, align 4, !tbaa !101
  %5 = load i32, ptr %3, align 4, !tbaa !101
  %6 = load i32, ptr %4, align 4, !tbaa !101
  %7 = or i32 %5, %6
  ret i32 %7
}

; Function Attrs: mustprogress nounwind uwtable
define available_externally noundef i32 @_ZNKSt9basic_iosIcSt11char_traitsIcEE7rdstateEv(ptr noundef nonnull align 8 dereferenceable(264) %0) #10 align 2 {
  %2 = alloca ptr, align 8
  store ptr %0, ptr %2, align 8, !tbaa !8
  %3 = load ptr, ptr %2, align 8
  %4 = getelementptr inbounds nuw %"class.std::ios_base", ptr %3, i32 0, i32 5
  %5 = load i32, ptr %4, align 8, !tbaa !102
  ret i32 %5
}

; Function Attrs: mustprogress nounwind uwtable
define linkonce_odr hidden noundef i64 @_ZNSt11char_traitsIcE6lengthEPKc(ptr noundef %0) #10 comdat align 2 {
  %2 = alloca ptr, align 8
  store ptr %0, ptr %2, align 8, !tbaa !8
  %3 = load ptr, ptr %2, align 8, !tbaa !8
  %4 = call i64 @strlen(ptr noundef %3) #3
  ret i64 %4
}

; Function Attrs: mustprogress uwtable
define available_externally void @_ZNSt9basic_iosIcSt11char_traitsIcEE8setstateESt12_Ios_Iostate(ptr noundef nonnull align 8 dereferenceable(264) %0, i32 noundef %1) #5 align 2 {
  %3 = alloca ptr, align 8
  %4 = alloca i32, align 4
  store ptr %0, ptr %3, align 8, !tbaa !8
  store i32 %1, ptr %4, align 4, !tbaa !101
  %5 = load ptr, ptr %3, align 8
  %6 = call noundef i32 @_ZNKSt9basic_iosIcSt11char_traitsIcEE7rdstateEv(ptr noundef nonnull align 8 dereferenceable(264) %5)
  %7 = load i32, ptr %4, align 4, !tbaa !101
  %8 = call noundef i32 @_ZStorSt12_Ios_IostateS_(i32 noundef %6, i32 noundef %7)
  call void @_ZNSt9basic_iosIcSt11char_traitsIcEE5clearESt12_Ios_Iostate(ptr noundef nonnull align 8 dereferenceable(264) %5, i32 noundef %8)
  ret void
}

; Function Attrs: mustprogress uwtable
define available_externally noundef nonnull align 8 dereferenceable(8) ptr @_ZNSolsEm(ptr noundef nonnull align 8 dereferenceable(8) %0, i64 noundef %1) #5 align 2 {
  %3 = alloca ptr, align 8
  %4 = alloca i64, align 8
  store ptr %0, ptr %3, align 8, !tbaa !8
  store i64 %1, ptr %4, align 8, !tbaa !12
  %5 = load ptr, ptr %3, align 8
  %6 = load i64, ptr %4, align 8, !tbaa !12
  %7 = call noundef nonnull align 8 dereferenceable(8) ptr @_ZNSo9_M_insertImEERSoT_(ptr noundef nonnull align 8 dereferenceable(8) %5, i64 noundef %6)
  ret ptr %7
}

; Function Attrs: mustprogress uwtable
define linkonce_odr hidden void @_ZN5boost6nowide12utf8_codecvtIwLi4EEC2Em(ptr noundef nonnull align 8 dereferenceable(24) %0, i64 noundef %1) unnamed_addr #5 comdat align 2 {
  %3 = alloca ptr, align 8
  %4 = alloca i64, align 8
  store ptr %0, ptr %3, align 8, !tbaa !8
  store i64 %1, ptr %4, align 8, !tbaa !12
  %5 = load ptr, ptr %3, align 8
  %6 = load i64, ptr %4, align 8, !tbaa !12
  call void @_ZNSt7codecvtIwc11__mbstate_tEC2Em(ptr noundef nonnull align 8 dereferenceable(24) %5, i64 noundef %6)
  store ptr getelementptr inbounds inrange(-16, 72) ({ [11 x ptr] }, ptr @_ZTVN5boost6nowide12utf8_codecvtIwLi4EEE, i32 0, i32 0, i32 2), ptr %5, align 8, !tbaa !10
  ret void
}

; Function Attrs: mustprogress uwtable
define available_externally noundef nonnull align 8 dereferenceable(8) ptr @_ZNSolsEPFRSoS_E(ptr noundef nonnull align 8 dereferenceable(8) %0, ptr noundef %1) #5 align 2 {
  %3 = alloca ptr, align 8
  %4 = alloca ptr, align 8
  store ptr %0, ptr %3, align 8, !tbaa !8
  store ptr %1, ptr %4, align 8, !tbaa !8
  %5 = load ptr, ptr %3, align 8
  %6 = load ptr, ptr %4, align 8, !tbaa !8
  %7 = call noundef nonnull align 8 dereferenceable(8) ptr %6(ptr noundef nonnull align 8 dereferenceable(8) %5)
  ret ptr %7
}

; Function Attrs: inlinehint mustprogress uwtable
define available_externally noundef nonnull align 8 dereferenceable(8) ptr @_ZStlsISt11char_traitsIcEERSt13basic_ostreamIcT_ES5_PKc(ptr noundef nonnull align 8 dereferenceable(8) %0, ptr noundef %1) #8 {
  %3 = alloca ptr, align 8
  %4 = alloca ptr, align 8
  store ptr %0, ptr %3, align 8, !tbaa !8
  store ptr %1, ptr %4, align 8, !tbaa !8
  %5 = load ptr, ptr %4, align 8, !tbaa !8
  %6 = icmp ne ptr %5, null
  br i1 %6, label %13, label %7

7:                                                ; preds = %2
  %8 = load ptr, ptr %3, align 8, !tbaa !8
  %9 = load ptr, ptr %8, align 8, !tbaa !10
  %10 = getelementptr i8, ptr %9, i64 -24
  %11 = load i64, ptr %10, align 8
  %12 = getelementptr inbounds i8, ptr %8, i64 %11
  call void @_ZNSt9basic_iosIcSt11char_traitsIcEE8setstateESt12_Ios_Iostate(ptr noundef nonnull align 8 dereferenceable(264) %12, i32 noundef 1)
  br label %19

13:                                               ; preds = %2
  %14 = load ptr, ptr %3, align 8, !tbaa !8
  %15 = load ptr, ptr %4, align 8, !tbaa !8
  %16 = load ptr, ptr %4, align 8, !tbaa !8
  %17 = call noundef i64 @_ZNSt11char_traitsIcE6lengthEPKc(ptr noundef %16)
  %18 = call noundef nonnull align 8 dereferenceable(8) ptr @_ZSt16__ostream_insertIcSt11char_traitsIcEERSt13basic_ostreamIT_T0_ES6_PKS3_l(ptr noundef nonnull align 8 dereferenceable(8) %14, ptr noundef %15, i64 noundef %17)
  br label %19

19:                                               ; preds = %13, %7
  %20 = load ptr, ptr %3, align 8, !tbaa !8
  ret ptr %20
}

; Function Attrs: mustprogress uwtable
define hidden void @_Z17test_codecvt_convv() #5 personality ptr @__gxx_personality_v0 {
  %1 = alloca %"class.std::locale", align 8
  %2 = alloca ptr, align 8
  %3 = alloca i32, align 4
  %4 = alloca ptr, align 8
  %5 = alloca i64, align 8
  %6 = alloca i64, align 8
  %7 = alloca i64, align 8
  %8 = alloca i32, align 4
  %9 = alloca i64, align 8
  %10 = call noundef nonnull align 8 dereferenceable(8) ptr @_ZStlsISt11char_traitsIcEERSt13basic_ostreamIcT_ES5_PKc(ptr noundef nonnull align 8 dereferenceable(8) @_ZSt4cout, ptr noundef @.str.29)
  %11 = call noundef nonnull align 8 dereferenceable(8) ptr @_ZNSolsEPFRSoS_E(ptr noundef nonnull align 8 dereferenceable(8) %10, ptr noundef @_ZSt4endlIcSt11char_traitsIcEERSt13basic_ostreamIT_T0_ES6_)
  call void @llvm.lifetime.start.p0(i64 8, ptr %1) #3
  %12 = call noundef nonnull align 8 dereferenceable(8) ptr @_ZNSt6locale7classicEv()
  %13 = call noalias noundef nonnull ptr @_Znwm(i64 noundef 24) #25
  invoke void @_ZN5boost6nowide12utf8_codecvtIwLi4EEC2Em(ptr noundef nonnull align 8 dereferenceable(24) %13, i64 noundef 0)
          to label %14 unwind label %27

14:                                               ; preds = %0
  call void @_ZNSt6localeC2IN5boost6nowide12utf8_codecvtIwLi4EEEEERKS_PT_(ptr noundef nonnull align 8 dereferenceable(8) %1, ptr noundef nonnull align 8 dereferenceable(8) %12, ptr noundef %13)
  call void @llvm.lifetime.start.p0(i64 8, ptr %4) #3
  %15 = invoke noundef nonnull align 8 dereferenceable(24) ptr @_ZSt9use_facetISt7codecvtIwc11__mbstate_tEERKT_RKSt6locale(ptr noundef nonnull align 8 dereferenceable(8) %1)
          to label %16 unwind label %31

16:                                               ; preds = %14
  store ptr %15, ptr %4, align 8, !tbaa !8
  call void @llvm.lifetime.start.p0(i64 8, ptr %5) #3
  %17 = load ptr, ptr @_ZL9utf8_name, align 8, !tbaa !8
  %18 = call i64 @strlen(ptr noundef %17) #22
  store i64 %18, ptr %5, align 8, !tbaa !12
  call void @llvm.lifetime.start.p0(i64 8, ptr %6) #3
  %19 = load ptr, ptr @_ZL9wide_name, align 8, !tbaa !8
  %20 = call i64 @wcslen(ptr noundef %19) #22
  store i64 %20, ptr %6, align 8, !tbaa !12
  call void @llvm.lifetime.start.p0(i64 8, ptr %7) #3
  store i64 1, ptr %7, align 8, !tbaa !12
  br label %21

21:                                               ; preds = %80, %16
  %22 = load i64, ptr %7, align 8, !tbaa !12
  %23 = load i64, ptr %5, align 8, !tbaa !12
  %24 = add i64 %23, 1
  %25 = icmp ule i64 %22, %24
  br i1 %25, label %35, label %26

26:                                               ; preds = %21
  store i32 2, ptr %8, align 4
  call void @llvm.lifetime.end.p0(i64 8, ptr %7) #3
  br label %83

27:                                               ; preds = %0
  %28 = landingpad { ptr, i32 }
          cleanup
  %29 = extractvalue { ptr, i32 } %28, 0
  store ptr %29, ptr %2, align 8
  %30 = extractvalue { ptr, i32 } %28, 1
  store i32 %30, ptr %3, align 4
  call void @_ZdlPvm(ptr noundef %13, i64 noundef 24) #26
  br label %85

31:                                               ; preds = %14
  %32 = landingpad { ptr, i32 }
          cleanup
  %33 = extractvalue { ptr, i32 } %32, 0
  store ptr %33, ptr %2, align 8
  %34 = extractvalue { ptr, i32 } %32, 1
  store i32 %34, ptr %3, align 4
  br label %84

35:                                               ; preds = %21
  call void @llvm.lifetime.start.p0(i64 8, ptr %9) #3
  store i64 1, ptr %9, align 8, !tbaa !12
  br label %36

36:                                               ; preds = %76, %35
  %37 = load i64, ptr %9, align 8, !tbaa !12
  %38 = load i64, ptr %6, align 8, !tbaa !12
  %39 = add i64 %38, 1
  %40 = icmp ule i64 %37, %39
  br i1 %40, label %42, label %41

41:                                               ; preds = %36
  store i32 5, ptr %8, align 4
  call void @llvm.lifetime.end.p0(i64 8, ptr %9) #3
  br label %79

42:                                               ; preds = %36
  %43 = load ptr, ptr %4, align 8, !tbaa !8
  %44 = load i64, ptr %7, align 8, !tbaa !12
  %45 = load i64, ptr %9, align 8, !tbaa !12
  invoke void @_Z19test_codecvt_in_n_mRKSt7codecvtIwc11__mbstate_tEmm(ptr noundef nonnull align 8 dereferenceable(24) %43, i64 noundef %44, i64 noundef %45)
          to label %46 unwind label %51

46:                                               ; preds = %42
  %47 = load ptr, ptr %4, align 8, !tbaa !8
  %48 = load i64, ptr %7, align 8, !tbaa !12
  %49 = load i64, ptr %9, align 8, !tbaa !12
  invoke void @_Z20test_codecvt_out_n_mRKSt7codecvtIwc11__mbstate_tEmm(ptr noundef nonnull align 8 dereferenceable(24) %47, i64 noundef %48, i64 noundef %49)
          to label %50 unwind label %51

50:                                               ; preds = %46
  br label %75

51:                                               ; preds = %46, %42
  %52 = landingpad { ptr, i32 }
          catch ptr null
  %53 = extractvalue { ptr, i32 } %52, 0
  store ptr %53, ptr %2, align 8
  %54 = extractvalue { ptr, i32 } %52, 1
  store i32 %54, ptr %3, align 4
  br label %55

55:                                               ; preds = %51
  %56 = load ptr, ptr %2, align 8
  %57 = call ptr @__cxa_begin_catch(ptr %56) #3
  %58 = invoke noundef nonnull align 8 dereferenceable(8) ptr @_ZStlsISt11char_traitsIcEERSt13basic_ostreamIcT_ES5_PKc(ptr noundef nonnull align 8 dereferenceable(8) @_ZSt4cerr, ptr noundef @.str.30)
          to label %59 unwind label %70

59:                                               ; preds = %55
  %60 = load i64, ptr %9, align 8, !tbaa !12
  %61 = invoke noundef nonnull align 8 dereferenceable(8) ptr @_ZNSolsEm(ptr noundef nonnull align 8 dereferenceable(8) %58, i64 noundef %60)
          to label %62 unwind label %70

62:                                               ; preds = %59
  %63 = invoke noundef nonnull align 8 dereferenceable(8) ptr @_ZStlsISt11char_traitsIcEERSt13basic_ostreamIcT_ES5_PKc(ptr noundef nonnull align 8 dereferenceable(8) %61, ptr noundef @.str.31)
          to label %64 unwind label %70

64:                                               ; preds = %62
  %65 = load i64, ptr %7, align 8, !tbaa !12
  %66 = invoke noundef nonnull align 8 dereferenceable(8) ptr @_ZNSolsEm(ptr noundef nonnull align 8 dereferenceable(8) %63, i64 noundef %65)
          to label %67 unwind label %70

67:                                               ; preds = %64
  %68 = invoke noundef nonnull align 8 dereferenceable(8) ptr @_ZNSolsEPFRSoS_E(ptr noundef nonnull align 8 dereferenceable(8) %66, ptr noundef @_ZSt4endlIcSt11char_traitsIcEERSt13basic_ostreamIT_T0_ES6_)
          to label %69 unwind label %70

69:                                               ; preds = %67
  invoke void @__cxa_rethrow() #24
          to label %94 unwind label %70

70:                                               ; preds = %69, %67, %64, %62, %59, %55
  %71 = landingpad { ptr, i32 }
          cleanup
  %72 = extractvalue { ptr, i32 } %71, 0
  store ptr %72, ptr %2, align 8
  %73 = extractvalue { ptr, i32 } %71, 1
  store i32 %73, ptr %3, align 4
  invoke void @__cxa_end_catch()
          to label %74 unwind label %91

74:                                               ; preds = %70
  call void @llvm.lifetime.end.p0(i64 8, ptr %9) #3
  call void @llvm.lifetime.end.p0(i64 8, ptr %7) #3
  call void @llvm.lifetime.end.p0(i64 8, ptr %6) #3
  call void @llvm.lifetime.end.p0(i64 8, ptr %5) #3
  br label %84

75:                                               ; preds = %50
  br label %76

76:                                               ; preds = %75
  %77 = load i64, ptr %9, align 8, !tbaa !12
  %78 = add i64 %77, 1
  store i64 %78, ptr %9, align 8, !tbaa !12
  br label %36, !llvm.loop !44

79:                                               ; preds = %41
  br label %80

80:                                               ; preds = %79
  %81 = load i64, ptr %7, align 8, !tbaa !12
  %82 = add i64 %81, 1
  store i64 %82, ptr %7, align 8, !tbaa !12
  br label %21, !llvm.loop !45

83:                                               ; preds = %26
  call void @llvm.lifetime.end.p0(i64 8, ptr %6) #3
  call void @llvm.lifetime.end.p0(i64 8, ptr %5) #3
  call void @llvm.lifetime.end.p0(i64 8, ptr %4) #3
  call void @_ZNSt6localeD1Ev(ptr noundef nonnull align 8 dereferenceable(8) %1) #3
  call void @llvm.lifetime.end.p0(i64 8, ptr %1) #3
  ret void

84:                                               ; preds = %74, %31
  call void @llvm.lifetime.end.p0(i64 8, ptr %4) #3
  call void @_ZNSt6localeD1Ev(ptr noundef nonnull align 8 dereferenceable(8) %1) #3
  br label %85

85:                                               ; preds = %84, %27
  call void @llvm.lifetime.end.p0(i64 8, ptr %1) #3
  br label %86

86:                                               ; preds = %85
  %87 = load ptr, ptr %2, align 8
  %88 = load i32, ptr %3, align 4
  %89 = insertvalue { ptr, i32 } poison, ptr %87, 0
  %90 = insertvalue { ptr, i32 } %89, i32 %88, 1
  resume { ptr, i32 } %90

91:                                               ; preds = %70
  %92 = landingpad { ptr, i32 }
          catch ptr null
  %93 = extractvalue { ptr, i32 } %92, 0
  call void @__clang_call_terminate(ptr %93) #23
  unreachable

94:                                               ; preds = %69
  unreachable
}