; Function Attrs: mustprogress uwtable
define hidden void @_Z17test_codecvt_convv() local_unnamed_addr #4 personality ptr @__gxx_personality_v0 {
  %1 = alloca %"class.std::locale", align 8
  %2 = tail call noundef nonnull align 8 dereferenceable(8) ptr @_ZSt16__ostream_insertIcSt11char_traitsIcEERSt13basic_ostreamIT_T0_ES6_PKS3_l(ptr noundef nonnull align 8 dereferenceable(8) @_ZSt4cout, ptr noundef nonnull @.str.29, i64 noundef 12)
  %3 = load ptr, ptr @_ZSt4cout, align 8, !tbaa !4
  %4 = getelementptr i8, ptr %3, i64 -24
  %5 = load i64, ptr %4, align 8
  %6 = getelementptr inbounds i8, ptr @_ZSt4cout, i64 %5
  %7 = getelementptr inbounds nuw i8, ptr %6, i64 240
  %8 = load ptr, ptr %7, align 8, !tbaa !7
  %.not.i.i.i = icmp eq ptr %8, null
  br i1 %.not.i.i.i, label %9, label %_ZSt13__check_facetISt5ctypeIcEERKT_PS3_.exit.i.i

9:                                                ; preds = %0
  tail call void @_ZSt16__throw_bad_castv() #28
  unreachable

_ZSt13__check_facetISt5ctypeIcEERKT_PS3_.exit.i.i: ; preds = %0
  %10 = getelementptr inbounds nuw i8, ptr %8, i64 56
  %11 = load i8, ptr %10, align 8, !tbaa !19
  %.not.i1.i.i = icmp eq i8 %11, 0
  br i1 %.not.i1.i.i, label %15, label %12

12:                                               ; preds = %_ZSt13__check_facetISt5ctypeIcEERKT_PS3_.exit.i.i
  %13 = getelementptr inbounds nuw i8, ptr %8, i64 67
  %14 = load i8, ptr %13, align 1, !tbaa !22
  br label %_ZSt4endlIcSt11char_traitsIcEERSt13basic_ostreamIT_T0_ES6_.exit

15:                                               ; preds = %_ZSt13__check_facetISt5ctypeIcEERKT_PS3_.exit.i.i
  tail call void @_ZNKSt5ctypeIcE13_M_widen_initEv(ptr noundef nonnull align 8 dereferenceable(570) %8)
  %16 = load ptr, ptr %8, align 8, !tbaa !4
  %17 = getelementptr inbounds i8, ptr %16, i64 48
  %18 = load ptr, ptr %17, align 8
  %19 = tail call noundef signext i8 %18(ptr noundef nonnull align 8 dereferenceable(570) %8, i8 noundef signext 10)
  br label %_ZSt4endlIcSt11char_traitsIcEERSt13basic_ostreamIT_T0_ES6_.exit

_ZSt4endlIcSt11char_traitsIcEERSt13basic_ostreamIT_T0_ES6_.exit: ; preds = %12, %15
  %.0.i.i.i = phi i8 [ %14, %12 ], [ %19, %15 ]
  %20 = tail call noundef nonnull align 8 dereferenceable(8) ptr @_ZNSo3putEc(ptr noundef nonnull align 8 dereferenceable(8) @_ZSt4cout, i8 noundef signext %.0.i.i.i)
  %21 = tail call noundef nonnull align 8 dereferenceable(8) ptr @_ZNSo5flushEv(ptr noundef nonnull align 8 dereferenceable(8) %20)
  call void @llvm.lifetime.start.p0(i64 8, ptr nonnull %1) #26
  %22 = tail call noundef nonnull align 8 dereferenceable(8) ptr @_ZNSt6locale7classicEv()
  %23 = tail call noalias noundef nonnull dereferenceable(24) ptr @_Znwm(i64 noundef 24) #31
  invoke void @_ZNSt7codecvtIwc11__mbstate_tEC2Em(ptr noundef nonnull align 8 dereferenceable(24) %23, i64 noundef 0)
          to label %24 unwind label %30

24:                                               ; preds = %_ZSt4endlIcSt11char_traitsIcEERSt13basic_ostreamIT_T0_ES6_.exit
  store ptr getelementptr inbounds inrange(-16, 72) (i8, ptr @_ZTVN5boost6nowide12utf8_codecvtIwLi4EEE, i64 16), ptr %23, align 8, !tbaa !4
  call void @_ZNSt6localeC2IN5boost6nowide12utf8_codecvtIwLi4EEEEERKS_PT_(ptr noundef nonnull align 8 dereferenceable(8) %1, ptr noundef nonnull align 8 dereferenceable(8) %22, ptr noundef nonnull %23)
  %25 = invoke noundef nonnull align 8 dereferenceable(24) ptr @_ZSt9use_facetISt7codecvtIwc11__mbstate_tEERKT_RKSt6locale(ptr noundef nonnull align 8 dereferenceable(8) %1)
          to label %26 unwind label %32

26:                                               ; preds = %24
  %27 = load ptr, ptr @_ZL9wide_name, align 8, !tbaa !55
  %28 = call i64 @wcslen(ptr noundef %27) #29
  %29 = add i64 %28, 1
  %.not26 = icmp eq i64 %29, 0
  br i1 %.not26, label %.split30.us, label %.preheader

.preheader:                                       ; preds = %26, %._crit_edge
  %.01628 = phi i64 [ %34, %._crit_edge ], [ 1, %26 ]
  br label %35

.split30.us:                                      ; preds = %._crit_edge, %26
  call void @_ZNSt6localeD1Ev(ptr noundef nonnull align 8 dereferenceable(8) %1) #26
  call void @llvm.lifetime.end.p0(i64 8, ptr nonnull %1) #26
  ret void

30:                                               ; preds = %_ZSt4endlIcSt11char_traitsIcEERSt13basic_ostreamIT_T0_ES6_.exit
  %31 = landingpad { ptr, i32 }
          cleanup
  tail call void @_ZdlPvm(ptr noundef nonnull %23, i64 noundef 24) #30
  br label %51

32:                                               ; preds = %24
  %33 = landingpad { ptr, i32 }
          cleanup
  br label %50

._crit_edge:                                      ; preds = %48
  %34 = add nuw nsw i64 %.01628, 1
  %exitcond.not = icmp eq i64 %34, 30
  br i1 %exitcond.not, label %.split30.us, label %.preheader, !llvm.loop !110

35:                                               ; preds = %.preheader, %48
  %.027 = phi i64 [ 1, %.preheader ], [ %49, %48 ]
  invoke void @_Z19test_codecvt_in_n_mRKSt7codecvtIwc11__mbstate_tEmm(ptr noundef nonnull align 8 dereferenceable(24) %25, i64 noundef %.01628, i64 noundef %.027)
          to label %36 unwind label %37

36:                                               ; preds = %35
  invoke void @_Z20test_codecvt_out_n_mRKSt7codecvtIwc11__mbstate_tEmm(ptr noundef nonnull align 8 dereferenceable(24) %25, i64 noundef %.01628, i64 noundef %.027)
          to label %48 unwind label %37

37:                                               ; preds = %36, %35
  %38 = landingpad { ptr, i32 }
          catch ptr null
  %39 = extractvalue { ptr, i32 } %38, 0
  %40 = call ptr @__cxa_begin_catch(ptr %39) #26
  %41 = invoke noundef nonnull align 8 dereferenceable(8) ptr @_ZSt16__ostream_insertIcSt11char_traitsIcEERSt13basic_ostreamIT_T0_ES6_PKS3_l(ptr noundef nonnull align 8 dereferenceable(8) @_ZSt4cerr, ptr noundef nonnull @.str.30, i64 noundef 5)
          to label %_ZStlsISt11char_traitsIcEERSt13basic_ostreamIcT_ES5_PKc.exit unwind label %46

_ZStlsISt11char_traitsIcEERSt13basic_ostreamIcT_ES5_PKc.exit: ; preds = %37
  %42 = invoke noundef nonnull align 8 dereferenceable(8) ptr @_ZNSo9_M_insertImEERSoT_(ptr noundef nonnull align 8 dereferenceable(8) @_ZSt4cerr, i64 noundef %.027)
          to label %_ZNSolsEm.exit unwind label %46

_ZNSolsEm.exit:                                   ; preds = %_ZStlsISt11char_traitsIcEERSt13basic_ostreamIcT_ES5_PKc.exit
  %43 = invoke noundef nonnull align 8 dereferenceable(8) ptr @_ZSt16__ostream_insertIcSt11char_traitsIcEERSt13basic_ostreamIT_T0_ES6_PKS3_l(ptr noundef nonnull align 8 dereferenceable(8) %42, ptr noundef nonnull @.str.31, i64 noundef 6)
          to label %_ZStlsISt11char_traitsIcEERSt13basic_ostreamIcT_ES5_PKc.exit22 unwind label %46

_ZStlsISt11char_traitsIcEERSt13basic_ostreamIcT_ES5_PKc.exit22: ; preds = %_ZNSolsEm.exit
  %44 = invoke noundef nonnull align 8 dereferenceable(8) ptr @_ZNSo9_M_insertImEERSoT_(ptr noundef nonnull align 8 dereferenceable(8) %42, i64 noundef %.01628)
          to label %_ZNSolsEm.exit23 unwind label %46

_ZNSolsEm.exit23:                                 ; preds = %_ZStlsISt11char_traitsIcEERSt13basic_ostreamIcT_ES5_PKc.exit22
  %45 = invoke noundef nonnull align 8 dereferenceable(8) ptr @_ZSt4endlIcSt11char_traitsIcEERSt13basic_ostreamIT_T0_ES6_(ptr noundef nonnull align 8 dereferenceable(8) %44)
          to label %_ZNSolsEPFRSoS_E.exit unwind label %46

_ZNSolsEPFRSoS_E.exit:                            ; preds = %_ZNSolsEm.exit23
  invoke void @__cxa_rethrow() #28
          to label %55 unwind label %46

46:                                               ; preds = %_ZNSolsEm.exit23, %_ZStlsISt11char_traitsIcEERSt13basic_ostreamIcT_ES5_PKc.exit22, %_ZNSolsEm.exit, %_ZStlsISt11char_traitsIcEERSt13basic_ostreamIcT_ES5_PKc.exit, %37, %_ZNSolsEPFRSoS_E.exit
  %47 = landingpad { ptr, i32 }
          cleanup
  invoke void @__cxa_end_catch()
          to label %50 unwind label %52

48:                                               ; preds = %36
  %49 = add i64 %.027, 1
  %.not = icmp ugt i64 %49, %29
  br i1 %.not, label %._crit_edge, label %35, !llvm.loop !111

50:                                               ; preds = %46, %32
  %.pn = phi { ptr, i32 } [ %33, %32 ], [ %47, %46 ]
  call void @_ZNSt6localeD1Ev(ptr noundef nonnull align 8 dereferenceable(8) %1) #26
  br label %51

51:                                               ; preds = %50, %30
  %.pn.pn = phi { ptr, i32 } [ %.pn, %50 ], [ %31, %30 ]
  call void @llvm.lifetime.end.p0(i64 8, ptr nonnull %1) #26
  resume { ptr, i32 } %.pn.pn

52:                                               ; preds = %46
  %53 = landingpad { ptr, i32 }
          catch ptr null
  %54 = extractvalue { ptr, i32 } %53, 0
  call void @__clang_call_terminate(ptr %54) #27
  unreachable

55:                                               ; preds = %_ZNSolsEPFRSoS_E.exit
  unreachable
}